target datalayout = "e-m:e-p270:32:32-p271:32:32-p272:64:64-i64:64-i128:128-f80:128-n8:16:32:64-S128"
target triple = "x86_64-pc-linux-gnu"

%struct.BulkWriteState = type { ptr, i32, i8, i32, [32 x %struct.PendingWrite], i32, i64, ptr }
%struct.PendingWrite = type { ptr, i32, i8 }

@CurrentMemoryContext = external global ptr, align 8

; Function Attrs: nounwind uwtable
define dso_local ptr @smgr_bulk_start_smgr(ptr noundef %0, i32 noundef %1, i1 noundef zeroext %2) #0 {
  %4 = alloca ptr, align 8
  %5 = alloca i32, align 4
  %6 = alloca i8, align 1
  %7 = alloca ptr, align 8
  store ptr %0, ptr %4, align 8
  store i32 %1, ptr %5, align 4
  %8 = zext i1 %2 to i8
  store i8 %8, ptr %6, align 1
  call void @llvm.lifetime.start.p0(i64 8, ptr %7) #7
  %9 = call ptr @palloc(i64 noundef 560)
  store ptr %9, ptr %7, align 8
  %10 = load ptr, ptr %4, align 8
  %11 = load ptr, ptr %7, align 8
  %12 = getelementptr inbounds nuw %struct.BulkWriteState, ptr %11, i32 0, i32 0
  store ptr %10, ptr %12, align 8
  %13 = load i32, ptr %5, align 4
  %14 = load ptr, ptr %7, align 8
  %15 = getelementptr inbounds nuw %struct.BulkWriteState, ptr %14, i32 0, i32 1
  store i32 %13, ptr %15, align 8
  %16 = load i8, ptr %6, align 1, !range !4, !noundef !5
  %17 = trunc i8 %16 to i1
  %18 = load ptr, ptr %7, align 8
  %19 = getelementptr inbounds nuw %struct.BulkWriteState, ptr %18, i32 0, i32 2
  %20 = zext i1 %17 to i8
  store i8 %20, ptr %19, align 4
  %21 = load ptr, ptr %7, align 8
  %22 = getelementptr inbounds nuw %struct.BulkWriteState, ptr %21, i32 0, i32 3
  store i32 0, ptr %22, align 8
  %23 = load ptr, ptr %4, align 8
  %24 = load i32, ptr %5, align 4
  %25 = call i32 @smgrnblocks(ptr noundef %23, i32 noundef %24)
  %26 = load ptr, ptr %7, align 8
  %27 = getelementptr inbounds nuw %struct.BulkWriteState, ptr %26, i32 0, i32 5
  store i32 %25, ptr %27, align 8
  %28 = call i64 @GetRedoRecPtr()
  %29 = load ptr, ptr %7, align 8
  %30 = getelementptr inbounds nuw %struct.BulkWriteState, ptr %29, i32 0, i32 6
  store i64 %28, ptr %30, align 8
  %31 = load ptr, ptr @CurrentMemoryContext, align 8
  %32 = load ptr, ptr %7, align 8
  %33 = getelementptr inbounds nuw %struct.BulkWriteState, ptr %32, i32 0, i32 7
  store ptr %31, ptr %33, align 8
  %34 = load ptr, ptr %7, align 8
  call void @llvm.lifetime.end.p0(i64 8, ptr %7) #7
  ret ptr %34
}