; Function Attrs: nounwind uwtable
define dso_local noundef ptr @smgr_bulk_start_smgr(ptr noundef %0, i32 noundef %1, i1 noundef zeroext %2) local_unnamed_addr #0 {
  %4 = zext i1 %2 to i8
  %5 = tail call ptr @palloc(i64 noundef 560) #4
  store ptr %0, ptr %5, align 8
  %6 = getelementptr inbounds nuw i8, ptr %5, i64 8
  store i32 %1, ptr %6, align 8
  %7 = getelementptr inbounds nuw i8, ptr %5, i64 12
  store i8 %4, ptr %7, align 4
  %8 = getelementptr inbounds nuw i8, ptr %5, i64 16
  store i32 0, ptr %8, align 8
  %9 = tail call i32 @smgrnblocks(ptr noundef %0, i32 noundef %1) #4
  %10 = getelementptr inbounds nuw i8, ptr %5, i64 536
  store i32 %9, ptr %10, align 8
  %11 = tail call i64 @GetRedoRecPtr() #4
  %12 = getelementptr inbounds nuw i8, ptr %5, i64 544
  store i64 %11, ptr %12, align 8
  %13 = load ptr, ptr @CurrentMemoryContext, align 8
  %14 = getelementptr inbounds nuw i8, ptr %5, i64 552
  store ptr %13, ptr %14, align 8
  ret ptr %5
}